; Function Attrs: mustprogress nofree norecurse nosync nounwind willreturn memory(argmem: readwrite) uwtable
define dso_local range(i32 -1, 1) i32 @nghttp2_http_on_response_headers(ptr noundef captures(none) %0) local_unnamed_addr #3 {
  %2 = getelementptr inbounds nuw i8, ptr %0, i64 212
  %3 = load i32, ptr %2, align 4, !tbaa !19
  %4 = and i32 %3, 32
  %5 = icmp eq i32 %4, 0
  br i1 %5, label %25, label %6

6:                                                ; preds = %1
  %7 = getelementptr inbounds nuw i8, ptr %0, i64 208
  %8 = load i16, ptr %7, align 8, !tbaa !58
  %.fr15 = freeze i16 %8
  %.off = add i16 %.fr15, -100
  %9 = icmp ult i16 %.off, 100
  br i1 %9, label %10, label %14

10:                                               ; preds = %6
  %11 = and i32 %3, 1920
  %12 = or disjoint i32 %11, 16384
  store i32 %12, ptr %2, align 4, !tbaa !19
  %13 = getelementptr inbounds nuw i8, ptr %0, i64 48
  store i64 -1, ptr %13, align 8, !tbaa !55
  store i16 -1, ptr %7, align 8, !tbaa !58
  br label %25

14:                                               ; preds = %6
  %15 = and i32 %3, -16385
  store i32 %15, ptr %2, align 4, !tbaa !19
  %16 = and i32 %3, 256
  %17 = icmp eq i32 %16, 0
  br i1 %17, label %18, label %expect_response_body.exit.thread

18:                                               ; preds = %14
  %19 = sext i16 %.fr15 to i32
  %.off.i = add nsw i32 %19, -100
  %.not.i = icmp ult i32 %.off.i, 100
  br i1 %.not.i, label %expect_response_body.exit.thread, label %switch.early.test

switch.early.test:                                ; preds = %18
  switch i16 %.fr15, label %21 [
    i16 304, label %expect_response_body.exit.thread
    i16 204, label %expect_response_body.exit.thread
  ]

expect_response_body.exit.thread:                 ; preds = %switch.early.test, %switch.early.test, %18, %14
  %20 = getelementptr inbounds nuw i8, ptr %0, i64 48
  store i64 0, ptr %20, align 8, !tbaa !55
  br label %25

21:                                               ; preds = %switch.early.test
  %22 = and i32 %3, 1152
  %.not12 = icmp eq i32 %22, 0
  br i1 %.not12, label %25, label %23

23:                                               ; preds = %21
  %24 = getelementptr inbounds nuw i8, ptr %0, i64 48
  store i64 -1, ptr %24, align 8, !tbaa !55
  br label %25

25:                                               ; preds = %expect_response_body.exit.thread, %23, %21, %1, %10
  %.0 = phi i32 [ 0, %10 ], [ -1, %1 ], [ 0, %21 ], [ 0, %23 ], [ 0, %expect_response_body.exit.thread ]
  ret i32 %.0
}